target datalayout = "e-m:e-p270:32:32-p271:32:32-p272:64:64-i64:64-i128:128-f80:128-n8:16:32:64-S128"
target triple = "x86_64-pc-linux-gnu"

%struct.pmix_hash_type_methods_t = type { ptr, ptr }
%struct.pmix_hash_table_t = type { %struct.pmix_object_t, ptr, ptr, i64, i64, i64, i32, i32, i32, i32, ptr }
%struct.pmix_object_t = type { %union.pthread_mutex_t, ptr, i32, %struct.pmix_tma }
%union.pthread_mutex_t = type { %struct.__pthread_mutex_s }
%struct.__pthread_mutex_s = type { i32, i32, i32, i32, i32, i16, i16, %struct.__pthread_internal_list }
%struct.__pthread_internal_list = type { ptr, ptr }
%struct.pmix_tma = type { ptr, ptr, ptr, ptr, ptr, ptr, ptr, ptr }
%struct.pmix_hash_element_t = type { i32, %union.anon, ptr, ptr }
%union.anon = type { %struct.anon }
%struct.anon = type { ptr, i64 }

; Function Attrs: inlinehint nounwind uwtable
define internal void @pmix_tma_free(ptr noundef %0, ptr noundef %1) #2 {
  %3 = alloca ptr, align 8
  %4 = alloca ptr, align 8
  store ptr %0, ptr %3, align 8, !tbaa !26
  store ptr %1, ptr %4, align 8, !tbaa !42
  %5 = load ptr, ptr %3, align 8, !tbaa !26
  %6 = icmp ne ptr null, %5
  br i1 %6, label %7, label %13

7:                                                ; preds = %2
  %8 = load ptr, ptr %3, align 8, !tbaa !26
  %9 = getelementptr inbounds nuw %struct.pmix_tma, ptr %8, i32 0, i32 5
  %10 = load ptr, ptr %9, align 8, !tbaa !58
  %11 = load ptr, ptr %3, align 8, !tbaa !26
  %12 = load ptr, ptr %4, align 8, !tbaa !42
  call void %10(ptr noundef %11, ptr noundef %12)
  br label %15

13:                                               ; preds = %2
  %14 = load ptr, ptr %4, align 8, !tbaa !42
  call void @free(ptr noundef %14) #9
  br label %15

15:                                               ; preds = %13, %7
  ret void
}

; Function Attrs: inlinehint nounwind uwtable
define internal ptr @pmix_tma_calloc(ptr noundef %0, i64 noundef %1, i64 noundef %2) #2 {
  %4 = alloca ptr, align 8
  %5 = alloca ptr, align 8
  %6 = alloca i64, align 8
  %7 = alloca i64, align 8
  store ptr %0, ptr %5, align 8, !tbaa !26
  store i64 %1, ptr %6, align 8, !tbaa !28
  store i64 %2, ptr %7, align 8, !tbaa !28
  %8 = load ptr, ptr %5, align 8, !tbaa !26
  %9 = icmp ne ptr null, %8
  br i1 %9, label %10, label %18

10:                                               ; preds = %3
  %11 = load ptr, ptr %5, align 8, !tbaa !26
  %12 = getelementptr inbounds nuw %struct.pmix_tma, ptr %11, i32 0, i32 1
  %13 = load ptr, ptr %12, align 8, !tbaa !33
  %14 = load ptr, ptr %5, align 8, !tbaa !26
  %15 = load i64, ptr %6, align 8, !tbaa !28
  %16 = load i64, ptr %7, align 8, !tbaa !28
  %17 = call ptr %13(ptr noundef %14, i64 noundef %15, i64 noundef %16)
  store ptr %17, ptr %4, align 8
  br label %22

18:                                               ; preds = %3
  %19 = load i64, ptr %6, align 8, !tbaa !28
  %20 = load i64, ptr %7, align 8, !tbaa !28
  %21 = call noalias ptr @calloc(i64 noundef %19, i64 noundef %20) #10
  store ptr %21, ptr %4, align 8
  br label %22

22:                                               ; preds = %18, %10
  %23 = load ptr, ptr %4, align 8
  ret ptr %23
}

; Function Attrs: nounwind uwtable
define internal i64 @pmix_hash_round_capacity_up(i64 noundef %0) #0 {
  %2 = alloca i64, align 8
  store i64 %0, ptr %2, align 8, !tbaa !28
  %3 = load i64, ptr %2, align 8, !tbaa !28
  %4 = add i64 %3, 29
  %5 = udiv i64 %4, 30
  %6 = mul i64 %5, 30
  %7 = add i64 %6, 1
  ret i64 %7
}

; Function Attrs: inlinehint nounwind uwtable
define internal ptr @pmix_obj_get_tma(ptr noundef %0) #2 {
  %2 = alloca ptr, align 8
  %3 = alloca ptr, align 8
  store ptr %0, ptr %3, align 8, !tbaa !30
  %4 = load ptr, ptr %3, align 8, !tbaa !30
  %5 = getelementptr inbounds nuw %struct.pmix_object_t, ptr %4, i32 0, i32 3
  %6 = getelementptr inbounds nuw %struct.pmix_tma, ptr %5, i32 0, i32 0
  %7 = load ptr, ptr %6, align 8, !tbaa !32
  %8 = icmp ne ptr %7, null
  br i1 %8, label %9, label %12

9:                                                ; preds = %1
  %10 = load ptr, ptr %3, align 8, !tbaa !30
  %11 = getelementptr inbounds nuw %struct.pmix_object_t, ptr %10, i32 0, i32 3
  store ptr %11, ptr %2, align 8
  br label %13

12:                                               ; preds = %1
  store ptr null, ptr %2, align 8
  br label %13

13:                                               ; preds = %12, %9
  %14 = load ptr, ptr %2, align 8
  ret ptr %14
}

; Function Attrs: nounwind uwtable
define internal i32 @pmix_hash_grow(ptr noundef %0) #0 {
  %2 = alloca i32, align 4
  %3 = alloca ptr, align 8
  %4 = alloca ptr, align 8
  %5 = alloca i64, align 8
  %6 = alloca i64, align 8
  %7 = alloca ptr, align 8
  %8 = alloca ptr, align 8
  %9 = alloca i64, align 8
  %10 = alloca i64, align 8
  %11 = alloca i32, align 4
  %12 = alloca ptr, align 8
  %13 = alloca ptr, align 8
  store ptr %0, ptr %3, align 8, !tbaa !3
  call void @llvm.lifetime.start.p0(i64 8, ptr %4) #9
  %14 = load ptr, ptr %3, align 8, !tbaa !3
  %15 = getelementptr inbounds nuw %struct.pmix_hash_table_t, ptr %14, i32 0, i32 0
  %16 = call ptr @pmix_obj_get_tma(ptr noundef %15)
  store ptr %16, ptr %4, align 8, !tbaa !26
  call void @llvm.lifetime.start.p0(i64 8, ptr %5) #9
  call void @llvm.lifetime.start.p0(i64 8, ptr %6) #9
  call void @llvm.lifetime.start.p0(i64 8, ptr %7) #9
  call void @llvm.lifetime.start.p0(i64 8, ptr %8) #9
  call void @llvm.lifetime.start.p0(i64 8, ptr %9) #9
  call void @llvm.lifetime.start.p0(i64 8, ptr %10) #9
  %17 = load ptr, ptr %3, align 8, !tbaa !3
  %18 = getelementptr inbounds nuw %struct.pmix_hash_table_t, ptr %17, i32 0, i32 2
  %19 = load ptr, ptr %18, align 8, !tbaa !8
  store ptr %19, ptr %7, align 8, !tbaa !34
  %20 = load ptr, ptr %3, align 8, !tbaa !3
  %21 = getelementptr inbounds nuw %struct.pmix_hash_table_t, ptr %20, i32 0, i32 3
  %22 = load i64, ptr %21, align 8, !tbaa !20
  store i64 %22, ptr %9, align 8, !tbaa !28
  %23 = load i64, ptr %9, align 8, !tbaa !28
  %24 = load ptr, ptr %3, align 8, !tbaa !3
  %25 = getelementptr inbounds nuw %struct.pmix_hash_table_t, ptr %24, i32 0, i32 8
  %26 = load i32, ptr %25, align 8, !tbaa !24
  %27 = sext i32 %26 to i64
  %28 = mul i64 %23, %27
  %29 = load ptr, ptr %3, align 8, !tbaa !3
  %30 = getelementptr inbounds nuw %struct.pmix_hash_table_t, ptr %29, i32 0, i32 9
  %31 = load i32, ptr %30, align 4, !tbaa !23
  %32 = sext i32 %31 to i64
  %33 = udiv i64 %28, %32
  store i64 %33, ptr %10, align 8, !tbaa !28
  %34 = load i64, ptr %10, align 8, !tbaa !28
  %35 = call i64 @pmix_hash_round_capacity_up(i64 noundef %34)
  store i64 %35, ptr %10, align 8, !tbaa !28
  %36 = load ptr, ptr %4, align 8, !tbaa !26
  %37 = load i64, ptr %10, align 8, !tbaa !28
  %38 = call ptr @pmix_tma_calloc(ptr noundef %36, i64 noundef %37, i64 noundef 40)
  store ptr %38, ptr %8, align 8, !tbaa !34
  %39 = load ptr, ptr %8, align 8, !tbaa !34
  %40 = icmp eq ptr null, %39
  %41 = xor i1 %40, true
  %42 = xor i1 %41, true
  %43 = zext i1 %42 to i32
  %44 = sext i32 %43 to i64
  %45 = call i64 @llvm.expect.i64(i64 %44, i64 0)
  %46 = icmp ne i64 %45, 0
  br i1 %46, label %47, label %48

47:                                               ; preds = %1
  store i32 -29, ptr %2, align 4
  store i32 1, ptr %11, align 4
  br label %118

48:                                               ; preds = %1
  store i64 0, ptr %5, align 8, !tbaa !28
  br label %49

49:                                               ; preds = %93, %48
  %50 = load i64, ptr %5, align 8, !tbaa !28
  %51 = load i64, ptr %9, align 8, !tbaa !28
  %52 = icmp ult i64 %50, %51
  br i1 %52, label %53, label %96

53:                                               ; preds = %49
  call void @llvm.lifetime.start.p0(i64 8, ptr %12) #9
  call void @llvm.lifetime.start.p0(i64 8, ptr %13) #9
  %54 = load ptr, ptr %7, align 8, !tbaa !34
  %55 = load i64, ptr %5, align 8, !tbaa !28
  %56 = getelementptr inbounds nuw %struct.pmix_hash_element_t, ptr %54, i64 %55
  store ptr %56, ptr %12, align 8, !tbaa !34
  %57 = load ptr, ptr %12, align 8, !tbaa !34
  %58 = getelementptr inbounds nuw %struct.pmix_hash_element_t, ptr %57, i32 0, i32 0
  %59 = load i32, ptr %58, align 8, !tbaa !35
  %60 = icmp ne i32 %59, 0
  br i1 %60, label %61, label %92

61:                                               ; preds = %53
  %62 = load ptr, ptr %3, align 8, !tbaa !3
  %63 = getelementptr inbounds nuw %struct.pmix_hash_table_t, ptr %62, i32 0, i32 10
  %64 = load ptr, ptr %63, align 8, !tbaa !25
  %65 = getelementptr inbounds nuw %struct.pmix_hash_type_methods_t, ptr %64, i32 0, i32 1
  %66 = load ptr, ptr %65, align 8, !tbaa !45
  %67 = load ptr, ptr %12, align 8, !tbaa !34
  %68 = call i64 %66(ptr noundef %67)
  %69 = load i64, ptr %10, align 8, !tbaa !28
  %70 = urem i64 %68, %69
  store i64 %70, ptr %6, align 8, !tbaa !28
  br label %71

71:                                               ; preds = %88, %61
  %72 = load i64, ptr %6, align 8, !tbaa !28
  %73 = load i64, ptr %10, align 8, !tbaa !28
  %74 = icmp eq i64 %72, %73
  br i1 %74, label %75, label %76

75:                                               ; preds = %71
  store i64 0, ptr %6, align 8, !tbaa !28
  br label %76

76:                                               ; preds = %75, %71
  %77 = load ptr, ptr %8, align 8, !tbaa !34
  %78 = load i64, ptr %6, align 8, !tbaa !28
  %79 = getelementptr inbounds nuw %struct.pmix_hash_element_t, ptr %77, i64 %78
  store ptr %79, ptr %13, align 8, !tbaa !34
  %80 = load ptr, ptr %13, align 8, !tbaa !34
  %81 = getelementptr inbounds nuw %struct.pmix_hash_element_t, ptr %80, i32 0, i32 0
  %82 = load i32, ptr %81, align 8, !tbaa !35
  %83 = icmp ne i32 %82, 0
  br i1 %83, label %87, label %84

84:                                               ; preds = %76
  %85 = load ptr, ptr %13, align 8, !tbaa !34
  %86 = load ptr, ptr %12, align 8, !tbaa !34
  call void @llvm.memcpy.p0.p0.i64(ptr align 8 %85, ptr align 8 %86, i64 40, i1 false), !tbaa.struct !46
  br label %91

87:                                               ; preds = %76
  br label %88

88:                                               ; preds = %87
  %89 = load i64, ptr %6, align 8, !tbaa !28
  %90 = add i64 %89, 1
  store i64 %90, ptr %6, align 8, !tbaa !28
  br label %71

91:                                               ; preds = %84
  br label %92

92:                                               ; preds = %91, %53
  call void @llvm.lifetime.end.p0(i64 8, ptr %13) #9
  call void @llvm.lifetime.end.p0(i64 8, ptr %12) #9
  br label %93

93:                                               ; preds = %92
  %94 = load i64, ptr %5, align 8, !tbaa !28
  %95 = add i64 %94, 1
  store i64 %95, ptr %5, align 8, !tbaa !28
  br label %49, !llvm.loop !47

96:                                               ; preds = %49
  %97 = load ptr, ptr %8, align 8, !tbaa !34
  %98 = load ptr, ptr %3, align 8, !tbaa !3
  %99 = getelementptr inbounds nuw %struct.pmix_hash_table_t, ptr %98, i32 0, i32 2
  store ptr %97, ptr %99, align 8, !tbaa !8
  %100 = load i64, ptr %10, align 8, !tbaa !28
  %101 = load ptr, ptr %3, align 8, !tbaa !3
  %102 = getelementptr inbounds nuw %struct.pmix_hash_table_t, ptr %101, i32 0, i32 3
  store i64 %100, ptr %102, align 8, !tbaa !20
  %103 = load i64, ptr %10, align 8, !tbaa !28
  %104 = load ptr, ptr %3, align 8, !tbaa !3
  %105 = getelementptr inbounds nuw %struct.pmix_hash_table_t, ptr %104, i32 0, i32 6
  %106 = load i32, ptr %105, align 8, !tbaa !22
  %107 = sext i32 %106 to i64
  %108 = mul i64 %103, %107
  %109 = load ptr, ptr %3, align 8, !tbaa !3
  %110 = getelementptr inbounds nuw %struct.pmix_hash_table_t, ptr %109, i32 0, i32 7
  %111 = load i32, ptr %110, align 4, !tbaa !21
  %112 = sext i32 %111 to i64
  %113 = udiv i64 %108, %112
  %114 = load ptr, ptr %3, align 8, !tbaa !3
  %115 = getelementptr inbounds nuw %struct.pmix_hash_table_t, ptr %114, i32 0, i32 5
  store i64 %113, ptr %115, align 8, !tbaa !18
  %116 = load ptr, ptr %4, align 8, !tbaa !26
  %117 = load ptr, ptr %7, align 8, !tbaa !34
  call void @pmix_tma_free(ptr noundef %116, ptr noundef %117)
  store i32 0, ptr %2, align 4
  store i32 1, ptr %11, align 4
  br label %118

118:                                              ; preds = %96, %47
  call void @llvm.lifetime.end.p0(i64 8, ptr %10) #9
  call void @llvm.lifetime.end.p0(i64 8, ptr %9) #9
  call void @llvm.lifetime.end.p0(i64 8, ptr %8) #9
  call void @llvm.lifetime.end.p0(i64 8, ptr %7) #9
  call void @llvm.lifetime.end.p0(i64 8, ptr %6) #9
  call void @llvm.lifetime.end.p0(i64 8, ptr %5) #9
  call void @llvm.lifetime.end.p0(i64 8, ptr %4) #9
  %119 = load i32, ptr %2, align 4
  ret i32 %119
}