; Function Attrs: nounwind uwtable
define internal fastcc range(i32 -29, 1) i32 @pmix_hash_grow(ptr noundef %0) unnamed_addr #1 {
  %2 = getelementptr inbounds nuw i8, ptr %0, i64 56
  %3 = load ptr, ptr %2, align 8, !tbaa !3
  %.not.i = icmp eq ptr %3, null
  %4 = getelementptr inbounds nuw i8, ptr %0, i64 128
  %5 = load ptr, ptr %4, align 8, !tbaa !17
  %6 = getelementptr inbounds nuw i8, ptr %0, i64 136
  %7 = load i64, ptr %6, align 8, !tbaa !11
  %8 = getelementptr inbounds nuw i8, ptr %0, i64 168
  %9 = load i32, ptr %8, align 8, !tbaa !33
  %10 = sext i32 %9 to i64
  %11 = mul i64 %7, %10
  %12 = getelementptr inbounds nuw i8, ptr %0, i64 172
  %13 = load i32, ptr %12, align 4, !tbaa !34
  %14 = sext i32 %13 to i64
  %15 = udiv i64 %11, %14
  %16 = add i64 %15, 29
  %17 = urem i64 %16, 30
  %18 = add i64 %15, 30
  %19 = sub i64 %18, %17
  br i1 %.not.i, label %24, label %20

20:                                               ; preds = %1
  %21 = getelementptr inbounds nuw i8, ptr %0, i64 64
  %22 = load ptr, ptr %21, align 8, !tbaa !29
  %23 = tail call ptr %22(ptr noundef nonnull %2, i64 noundef range(i64 1, -14) %19, i64 noundef 40) #13
  br label %pmix_tma_calloc.exit

24:                                               ; preds = %1
  %25 = tail call noalias ptr @calloc(i64 noundef range(i64 1, -14) %19, i64 noundef 40) #14
  br label %pmix_tma_calloc.exit

pmix_tma_calloc.exit:                             ; preds = %20, %24
  %.0.i = phi ptr [ %23, %20 ], [ %25, %24 ]
  %26 = icmp eq ptr %.0.i, null
  br i1 %26, label %pmix_tma_free.exit, label %.preheader, !prof !30

.preheader:                                       ; preds = %pmix_tma_calloc.exit
  %.not44 = icmp eq i64 %7, 0
  br i1 %.not44, label %._crit_edge, label %.lr.ph

.lr.ph:                                           ; preds = %.preheader
  %27 = getelementptr inbounds nuw i8, ptr %0, i64 176
  br label %28

28:                                               ; preds = %.lr.ph, %43
  %.03743 = phi i64 [ 0, %.lr.ph ], [ %44, %43 ]
  %29 = getelementptr inbounds nuw %struct.pmix_hash_element_t, ptr %5, i64 %.03743
  %30 = load i32, ptr %29, align 8, !tbaa !18
  %.not = icmp eq i32 %30, 0
  br i1 %.not, label %43, label %31

31:                                               ; preds = %28
  %32 = load ptr, ptr %27, align 8, !tbaa !21
  %33 = getelementptr inbounds nuw i8, ptr %32, i64 8
  %34 = load ptr, ptr %33, align 8, !tbaa !39
  %35 = tail call i64 %34(ptr noundef nonnull %29) #13
  %36 = urem i64 %35, %19
  br label %37

37:                                               ; preds = %37, %31
  %.038 = phi i64 [ %36, %31 ], [ %41, %37 ]
  %38 = icmp eq i64 %.038, %19
  %spec.store.select = select i1 %38, i64 0, i64 %.038
  %39 = getelementptr inbounds nuw %struct.pmix_hash_element_t, ptr %.0.i, i64 %spec.store.select
  %40 = load i32, ptr %39, align 8, !tbaa !18
  %.not40 = icmp eq i32 %40, 0
  %41 = add i64 %spec.store.select, 1
  br i1 %.not40, label %42, label %37

42:                                               ; preds = %37
  tail call void @llvm.memcpy.p0.p0.i64(ptr noundef nonnull align 8 dereferenceable(40) %39, ptr noundef nonnull align 8 dereferenceable(40) %29, i64 40, i1 false), !tbaa.struct !40
  br label %43

43:                                               ; preds = %42, %28
  %44 = add nuw i64 %.03743, 1
  %exitcond.not = icmp eq i64 %44, %7
  br i1 %exitcond.not, label %._crit_edge, label %28, !llvm.loop !43

._crit_edge:                                      ; preds = %43, %.preheader
  store ptr %.0.i, ptr %4, align 8, !tbaa !17
  store i64 %19, ptr %6, align 8, !tbaa !11
  %45 = getelementptr inbounds nuw i8, ptr %0, i64 160
  %46 = load i32, ptr %45, align 8, !tbaa !31
  %47 = sext i32 %46 to i64
  %48 = mul i64 %19, %47
  %49 = getelementptr inbounds nuw i8, ptr %0, i64 164
  %50 = load i32, ptr %49, align 4, !tbaa !32
  %51 = sext i32 %50 to i64
  %52 = udiv i64 %48, %51
  %53 = getelementptr inbounds nuw i8, ptr %0, i64 152
  store i64 %52, ptr %53, align 8, !tbaa !35
  br i1 %.not.i, label %57, label %54

54:                                               ; preds = %._crit_edge
  %55 = getelementptr inbounds nuw i8, ptr %0, i64 96
  %56 = load ptr, ptr %55, align 8, !tbaa !28
  tail call void %56(ptr noundef nonnull %2, ptr noundef %5) #13
  br label %pmix_tma_free.exit

57:                                               ; preds = %._crit_edge
  tail call void @free(ptr noundef %5) #13
  br label %pmix_tma_free.exit

pmix_tma_free.exit:                               ; preds = %57, %54, %pmix_tma_calloc.exit
  %.0 = phi i32 [ -29, %pmix_tma_calloc.exit ], [ 0, %54 ], [ 0, %57 ]
  ret i32 %.0
}